target datalayout = "e-m:e-p270:32:32-p271:32:32-p272:64:64-i64:64-i128:128-f80:128-n8:16:32:64-S128"
target triple = "x86_64-pc-linux-gnu"

%struct.__va_list_tag = type { i32, i32, ptr, ptr }

; Function Attrs: nounwind uwtable
define dso_local void @vperror(ptr noundef %0, ...) #0 {
  %2 = alloca ptr, align 8
  %3 = alloca i32, align 4
  %4 = alloca [1024 x i8], align 16
  %5 = alloca [1 x %struct.__va_list_tag], align 16
  store ptr %0, ptr %2, align 8, !tbaa !4
  call void @llvm.lifetime.start.p0(i64 4, ptr %3) #8
  %6 = call ptr @__errno_location() #9
  %7 = load i32, ptr %6, align 4, !tbaa !9
  store i32 %7, ptr %3, align 4, !tbaa !9
  call void @llvm.lifetime.start.p0(i64 1024, ptr %4) #8
  call void @llvm.lifetime.start.p0(i64 24, ptr %5) #8
  %8 = getelementptr inbounds [1 x %struct.__va_list_tag], ptr %5, i64 0, i64 0
  call void @llvm.va_start.p0(ptr %8)
  %9 = getelementptr inbounds [1024 x i8], ptr %4, i64 0, i64 0
  %10 = load ptr, ptr %2, align 8, !tbaa !4
  %11 = getelementptr inbounds [1 x %struct.__va_list_tag], ptr %5, i64 0, i64 0
  %12 = call i32 @vsnprintf(ptr noundef %9, i64 noundef 1024, ptr noundef %10, ptr noundef %11) #8
  %13 = icmp eq i32 %12, -1
  br i1 %13, label %14, label %16

14:                                               ; preds = %1
  %15 = getelementptr inbounds nuw [1024 x i8], ptr %4, i64 0, i64 1023
  store i8 0, ptr %15, align 1, !tbaa !19
  br label %16

16:                                               ; preds = %14, %1
  %17 = getelementptr inbounds [1 x %struct.__va_list_tag], ptr %5, i64 0, i64 0
  call void @llvm.va_end.p0(ptr %17)
  %18 = load i32, ptr %3, align 4, !tbaa !9
  %19 = call ptr @__errno_location() #9
  store i32 %18, ptr %19, align 4, !tbaa !9
  %20 = getelementptr inbounds [1024 x i8], ptr %4, i64 0, i64 0
  call void @perror(ptr noundef %20)
  call void @llvm.lifetime.end.p0(i64 24, ptr %5) #8
  call void @llvm.lifetime.end.p0(i64 1024, ptr %4) #8
  call void @llvm.lifetime.end.p0(i64 4, ptr %3) #8
  ret void
}