; Function Attrs: cold nofree nounwind uwtable
define dso_local void @vperror(ptr noundef readonly captures(none) %0, ...) local_unnamed_addr #11 {
  %2 = alloca [1024 x i8], align 16
  %3 = alloca [1 x %struct.__va_list_tag], align 16
  %4 = tail call ptr @__errno_location() #14
  %5 = load i32, ptr %4, align 4, !tbaa !17
  call void @llvm.lifetime.start.p0(i64 1024, ptr nonnull %2) #15
  call void @llvm.lifetime.start.p0(i64 24, ptr nonnull %3) #15
  call void @llvm.va_start.p0(ptr nonnull %3)
  %6 = call i32 @vsnprintf(ptr noundef nonnull %2, i64 noundef 1024, ptr noundef %0, ptr noundef nonnull %3) #15
  %7 = icmp eq i32 %6, -1
  br i1 %7, label %8, label %10

8:                                                ; preds = %1
  %9 = getelementptr inbounds nuw i8, ptr %2, i64 1023
  store i8 0, ptr %9, align 1, !tbaa !15
  br label %10

10:                                               ; preds = %8, %1
  call void @llvm.va_end.p0(ptr nonnull %3)
  store i32 %5, ptr %4, align 4, !tbaa !17
  call void @perror(ptr noundef nonnull %2) #17
  call void @llvm.lifetime.end.p0(i64 24, ptr nonnull %3) #15
  call void @llvm.lifetime.end.p0(i64 1024, ptr nonnull %2) #15
  ret void
}